; Function Attrs: mustprogress nounwind uwtable
define hidden noundef zeroext i1 @_ZN22G1ConcurrentMarkThread19wait_for_next_cycleEv(ptr noundef nonnull align 8 dereferenceable(948) %0) local_unnamed_addr #0 align 2 {
  %2 = load ptr, ptr @CGC_lock, align 8
  %.not.i.i = icmp eq ptr %2, null
  br i1 %.not.i.i, label %_ZN13MonitorLockerC2EP7MonitorN5Mutex18SafepointCheckFlagE.exit, label %3

3:                                                ; preds = %1
  tail call void @_ZN5Mutex28lock_without_safepoint_checkEv(ptr noundef nonnull align 8 dereferenceable(104) %2) #11
  br label %_ZN13MonitorLockerC2EP7MonitorN5Mutex18SafepointCheckFlagE.exit

_ZN13MonitorLockerC2EP7MonitorN5Mutex18SafepointCheckFlagE.exit: ; preds = %1, %3
  %4 = getelementptr inbounds i8, ptr %0, i64 944
  %5 = load volatile i32, ptr %4, align 8
  %.not3 = icmp eq i32 %5, 0
  br i1 %.not3, label %.lr.ph, label %.critedge

.lr.ph:                                           ; preds = %_ZN13MonitorLockerC2EP7MonitorN5Mutex18SafepointCheckFlagE.exit, %_ZN13MonitorLocker4waitEl.exit
  %6 = tail call noundef zeroext i1 @_ZNK18ConcurrentGCThread16should_terminateEv(ptr noundef nonnull align 8 dereferenceable(918) %0) #11
  br i1 %6, label %.critedge, label %_ZN13MonitorLocker4waitEl.exit

_ZN13MonitorLocker4waitEl.exit:                   ; preds = %.lr.ph
  %7 = tail call noundef zeroext i1 @_ZN7Monitor28wait_without_safepoint_checkEm(ptr noundef nonnull align 8 dereferenceable(104) %2, i64 noundef 0) #11
  %8 = load volatile i32, ptr %4, align 8
  %.not = icmp eq i32 %8, 0
  br i1 %.not, label %.lr.ph, label %.critedge, !llvm.loop !8

.critedge:                                        ; preds = %.lr.ph, %_ZN13MonitorLocker4waitEl.exit, %_ZN13MonitorLockerC2EP7MonitorN5Mutex18SafepointCheckFlagE.exit
  %9 = tail call noundef zeroext i1 @_ZNK18ConcurrentGCThread16should_terminateEv(ptr noundef nonnull align 8 dereferenceable(918) %0) #11
  br i1 %.not.i.i, label %_ZN13MonitorLockerD2Ev.exit, label %10

10:                                               ; preds = %.critedge
  tail call void @_ZN5Mutex6unlockEv(ptr noundef nonnull align 8 dereferenceable(104) %2) #11
  br label %_ZN13MonitorLockerD2Ev.exit

_ZN13MonitorLockerD2Ev.exit:                      ; preds = %.critedge, %10
  %11 = xor i1 %9, true
  ret i1 %11
}